; ModuleID = 'source-C-CXX/49/1338.cpp'
source_filename = "source-C-CXX/49/1338.cpp"
target datalayout = "e-m:e-p270:32:32-p271:32:32-p272:64:64-i64:64-f80:128-n8:16:32:64-S128"
target triple = "x86_64-pc-linux-gnu"

%"class.std::ios_base::Init" = type { i8 }
%"class.std::basic_istream" = type { i32 (...)**, i64, %"class.std::basic_ios" }
%"class.std::basic_ios" = type { %"class.std::ios_base", %"class.std::basic_ostream"*, i8, i8, %"class.std::basic_streambuf"*, %"class.std::ctype"*, %"class.std::num_put"*, %"class.std::num_get"* }
%"class.std::ios_base" = type { i32 (...)**, i64, i64, i32, i32, i32, %"struct.std::ios_base::_Callback_list"*, %"struct.std::ios_base::_Words", [8 x %"struct.std::ios_base::_Words"], i32, %"struct.std::ios_base::_Words"*, %"class.std::locale" }
%"struct.std::ios_base::_Callback_list" = type { %"struct.std::ios_base::_Callback_list"*, void (i32, %"class.std::ios_base"*, i32)*, i32, i32 }
%"struct.std::ios_base::_Words" = type { i8*, i64 }
%"class.std::locale" = type { %"class.std::locale::_Impl"* }
%"class.std::locale::_Impl" = type { i32, %"class.std::locale::facet"**, i64, %"class.std::locale::facet"**, i8** }
%"class.std::locale::facet" = type <{ i32 (...)**, i32, [4 x i8] }>
%"class.std::basic_ostream" = type { i32 (...)**, %"class.std::basic_ios" }
%"class.std::basic_streambuf" = type { i32 (...)**, i8*, i8*, i8*, i8*, i8*, i8*, %"class.std::locale" }
%"class.std::ctype" = type <{ %"class.std::locale::facet.base", [4 x i8], %struct.__locale_struct*, i8, [7 x i8], i32*, i32*, i16*, i8, [256 x i8], [256 x i8], i8, [6 x i8] }>
%"class.std::locale::facet.base" = type <{ i32 (...)**, i32 }>
%struct.__locale_struct = type { [13 x %struct.__locale_data*], i16*, i32*, i32*, [13 x i8*] }
%struct.__locale_data = type opaque
%"class.std::num_put" = type { %"class.std::locale::facet.base", [4 x i8] }
%"class.std::num_get" = type { %"class.std::locale::facet.base", [4 x i8] }

@_ZStL8__ioinit = internal global %"class.std::ios_base::Init" zeroinitializer, align 1
@__dso_handle = external hidden global i8
@_ZSt3cin = external global %"class.std::basic_istream", align 8
@_ZSt4cout = external global %"class.std::basic_ostream", align 8
@llvm.global_ctors = appending global [1 x { i32, void ()*, i8* }] [{ i32, void ()*, i8* } { i32 65535, void ()* @_GLOBAL__sub_I_1338.cpp, i8* null }]
@switch.table.main = private unnamed_addr constant [3 x i32] [i32 12, i32 12, i32 40], align 4
@switch.table.main.1 = private unnamed_addr constant [3 x i32] [i32 0, i32 1, i32 1], align 4

declare void @_ZNSt8ios_base4InitC1Ev(%"class.std::ios_base::Init"* nonnull align 1 dereferenceable(1)) unnamed_addr #0

; Function Attrs: nounwind
declare void @_ZNSt8ios_base4InitD1Ev(%"class.std::ios_base::Init"* nonnull align 1 dereferenceable(1)) unnamed_addr #1

; Function Attrs: nofree nounwind
declare i32 @__cxa_atexit(void (i8*)*, i8*, i8*) local_unnamed_addr #2

; Function Attrs: mustprogress norecurse sspstrong uwtable
define dso_local i32 @main() local_unnamed_addr #3 {
  %1 = alloca i32, align 4
  %2 = bitcast i32* %1 to i8*
  call void @llvm.lifetime.start.p0i8(i64 4, i8* nonnull %2) #7
  %3 = call nonnull align 8 dereferenceable(16) %"class.std::basic_istream"* @_ZNSirsERi(%"class.std::basic_istream"* nonnull align 8 dereferenceable(16) @_ZSt3cin, i32* nonnull align 4 dereferenceable(4) %1)
  br label %4

4:                                                ; preds = %93, %0
  %5 = phi i32 [ %96, %93 ], [ 0, %0 ]
  %6 = phi i32 [ %94, %93 ], [ 1, %0 ]
  %7 = add i32 %5, -2
  %8 = add nsw i32 %6, -1
  %9 = icmp ult i32 %8, 3
  br i1 %9, label %30, label %10

10:                                               ; preds = %4
  %11 = and i32 %5, 1
  %12 = icmp eq i32 %5, 3
  br i1 %12, label %37, label %13

13:                                               ; preds = %10
  %14 = and i32 %7, -2
  br label %15

15:                                               ; preds = %102, %13
  %16 = phi i32 [ 1, %13 ], [ %104, %102 ]
  %17 = phi i32 [ 0, %13 ], [ %103, %102 ]
  %18 = phi i32 [ 3, %13 ], [ %105, %102 ]
  %19 = phi i32 [ %14, %13 ], [ %106, %102 ]
  %20 = and i32 %18, 2147483645
  switch i32 %20, label %23 [
    i32 9, label %21
    i32 4, label %21
  ]

21:                                               ; preds = %15, %15
  %22 = add nsw i32 %17, 1
  br label %25

23:                                               ; preds = %15
  %24 = add nsw i32 %16, 1
  br label %25

25:                                               ; preds = %23, %21
  %26 = phi i32 [ %22, %21 ], [ %17, %23 ]
  %27 = phi i32 [ %16, %21 ], [ %24, %23 ]
  %28 = add nuw nsw i32 %18, 1
  %29 = and i32 %28, 2147483645
  switch i32 %29, label %100 [
    i32 9, label %98
    i32 4, label %98
  ]

30:                                               ; preds = %4
  %31 = sext i32 %8 to i64
  %32 = getelementptr inbounds [3 x i32], [3 x i32]* @switch.table.main, i64 0, i64 %31
  %33 = load i32, i32* %32, align 4
  %34 = sext i32 %8 to i64
  %35 = getelementptr inbounds [3 x i32], [3 x i32]* @switch.table.main.1, i64 0, i64 %34
  %36 = load i32, i32* %35, align 4
  br label %50

37:                                               ; preds = %102, %10
  %38 = phi i32 [ undef, %10 ], [ %103, %102 ]
  %39 = phi i32 [ undef, %10 ], [ %104, %102 ]
  %40 = phi i32 [ 1, %10 ], [ %104, %102 ]
  %41 = phi i32 [ 0, %10 ], [ %103, %102 ]
  %42 = phi i32 [ 3, %10 ], [ %105, %102 ]
  %43 = icmp eq i32 %11, 0
  br i1 %43, label %50, label %44

44:                                               ; preds = %37
  %45 = and i32 %42, 2147483645
  switch i32 %45, label %48 [
    i32 9, label %46
    i32 4, label %46
  ]

46:                                               ; preds = %44, %44
  %47 = add nsw i32 %41, 1
  br label %50

48:                                               ; preds = %44
  %49 = add nsw i32 %40, 1
  br label %50

50:                                               ; preds = %37, %46, %48, %30
  %51 = phi i32 [ %33, %30 ], [ 40, %48 ], [ 40, %46 ], [ 40, %37 ]
  %52 = phi i32 [ 0, %30 ], [ %38, %37 ], [ %47, %46 ], [ %41, %48 ]
  %53 = phi i32 [ %36, %30 ], [ %39, %37 ], [ %40, %46 ], [ %49, %48 ]
  %54 = mul nsw i32 %52, 30
  %55 = mul nsw i32 %53, 31
  %56 = load i32, i32* %1, align 4, !tbaa !5
  %57 = add i32 %51, %54
  %58 = add i32 %57, %55
  %59 = add i32 %58, %56
  %60 = srem i32 %59, 7
  %61 = icmp eq i32 %60, 5
  br i1 %61, label %62, label %93

62:                                               ; preds = %50
  %63 = call nonnull align 8 dereferenceable(8) %"class.std::basic_ostream"* @_ZNSolsEi(%"class.std::basic_ostream"* nonnull align 8 dereferenceable(8) @_ZSt4cout, i32 %6)
  %64 = bitcast %"class.std::basic_ostream"* %63 to i8**
  %65 = load i8*, i8** %64, align 8, !tbaa !9
  %66 = getelementptr i8, i8* %65, i64 -24
  %67 = bitcast i8* %66 to i64*
  %68 = load i64, i64* %67, align 8
  %69 = bitcast %"class.std::basic_ostream"* %63 to i8*
  %70 = add nsw i64 %68, 240
  %71 = getelementptr inbounds i8, i8* %69, i64 %70
  %72 = bitcast i8* %71 to %"class.std::ctype"**
  %73 = load %"class.std::ctype"*, %"class.std::ctype"** %72, align 8, !tbaa !11
  %74 = icmp eq %"class.std::ctype"* %73, null
  br i1 %74, label %75, label %76

75:                                               ; preds = %62
  call void @_ZSt16__throw_bad_castv() #8
  unreachable

76:                                               ; preds = %62
  %77 = getelementptr inbounds %"class.std::ctype", %"class.std::ctype"* %73, i64 0, i32 8
  %78 = load i8, i8* %77, align 8, !tbaa !15
  %79 = icmp eq i8 %78, 0
  br i1 %79, label %83, label %80

80:                                               ; preds = %76
  %81 = getelementptr inbounds %"class.std::ctype", %"class.std::ctype"* %73, i64 0, i32 9, i64 10
  %82 = load i8, i8* %81, align 1, !tbaa !17
  br label %89

83:                                               ; preds = %76
  call void @_ZNKSt5ctypeIcE13_M_widen_initEv(%"class.std::ctype"* nonnull align 8 dereferenceable(570) %73)
  %84 = bitcast %"class.std::ctype"* %73 to i8 (%"class.std::ctype"*, i8)***
  %85 = load i8 (%"class.std::ctype"*, i8)**, i8 (%"class.std::ctype"*, i8)*** %84, align 8, !tbaa !9
  %86 = getelementptr inbounds i8 (%"class.std::ctype"*, i8)*, i8 (%"class.std::ctype"*, i8)** %85, i64 6
  %87 = load i8 (%"class.std::ctype"*, i8)*, i8 (%"class.std::ctype"*, i8)** %86, align 8
  %88 = call signext i8 %87(%"class.std::ctype"* nonnull align 8 dereferenceable(570) %73, i8 signext 10)
  br label %89

89:                                               ; preds = %80, %83
  %90 = phi i8 [ %82, %80 ], [ %88, %83 ]
  %91 = call nonnull align 8 dereferenceable(8) %"class.std::basic_ostream"* @_ZNSo3putEc(%"class.std::basic_ostream"* nonnull align 8 dereferenceable(8) %63, i8 signext %90)
  %92 = call nonnull align 8 dereferenceable(8) %"class.std::basic_ostream"* @_ZNSo5flushEv(%"class.std::basic_ostream"* nonnull align 8 dereferenceable(8) %91)
  br label %93

93:                                               ; preds = %50, %89
  %94 = add nuw nsw i32 %6, 1
  %95 = icmp eq i32 %94, 13
  %96 = add i32 %5, 1
  br i1 %95, label %97, label %4, !llvm.loop !18

97:                                               ; preds = %93
  call void @llvm.lifetime.end.p0i8(i64 4, i8* nonnull %2) #7
  ret i32 0

98:                                               ; preds = %25, %25
  %99 = add nsw i32 %26, 1
  br label %102

100:                                              ; preds = %25
  %101 = add nsw i32 %27, 1
  br label %102

102:                                              ; preds = %100, %98
  %103 = phi i32 [ %99, %98 ], [ %26, %100 ]
  %104 = phi i32 [ %27, %98 ], [ %101, %100 ]
  %105 = add nuw nsw i32 %18, 2
  %106 = add i32 %19, -2
  %107 = icmp eq i32 %106, 0
  br i1 %107, label %37, label %15, !llvm.loop !20
}

; Function Attrs: argmemonly mustprogress nofree nosync nounwind willreturn
declare void @llvm.lifetime.start.p0i8(i64 immarg, i8* nocapture) #4

declare nonnull align 8 dereferenceable(16) %"class.std::basic_istream"* @_ZNSirsERi(%"class.std::basic_istream"* nonnull align 8 dereferenceable(16), i32* nonnull align 4 dereferenceable(4)) local_unnamed_addr #0

declare nonnull align 8 dereferenceable(8) %"class.std::basic_ostream"* @_ZNSolsEi(%"class.std::basic_ostream"* nonnull align 8 dereferenceable(8), i32) local_unnamed_addr #0

; Function Attrs: argmemonly mustprogress nofree nosync nounwind willreturn
declare void @llvm.lifetime.end.p0i8(i64 immarg, i8* nocapture) #4

declare nonnull align 8 dereferenceable(8) %"class.std::basic_ostream"* @_ZNSo3putEc(%"class.std::basic_ostream"* nonnull align 8 dereferenceable(8), i8 signext) local_unnamed_addr #0

declare nonnull align 8 dereferenceable(8) %"class.std::basic_ostream"* @_ZNSo5flushEv(%"class.std::basic_ostream"* nonnull align 8 dereferenceable(8)) local_unnamed_addr #0

; Function Attrs: noreturn
declare void @_ZSt16__throw_bad_castv() local_unnamed_addr #5

declare void @_ZNKSt5ctypeIcE13_M_widen_initEv(%"class.std::ctype"* nonnull align 8 dereferenceable(570)) local_unnamed_addr #0

; Function Attrs: sspstrong uwtable
define internal void @_GLOBAL__sub_I_1338.cpp() #6 section ".text.startup" {
  tail call void @_ZNSt8ios_base4InitC1Ev(%"class.std::ios_base::Init"* nonnull align 1 dereferenceable(1) @_ZStL8__ioinit)
  %1 = tail call i32 @__cxa_atexit(void (i8*)* bitcast (void (%"class.std::ios_base::Init"*)* @_ZNSt8ios_base4InitD1Ev to void (i8*)*), i8* getelementptr inbounds (%"class.std::ios_base::Init", %"class.std::ios_base::Init"* @_ZStL8__ioinit, i64 0, i32 0), i8* nonnull @__dso_handle) #7
  ret void
}


!llvm.module.flags = !{!0, !1, !2, !3}
!llvm.ident = !{!4}

!0 = !{i32 1, !"wchar_size", i32 4}
!1 = !{i32 7, !"PIC Level", i32 2}
!2 = !{i32 7, !"PIE Level", i32 2}
!3 = !{i32 7, !"uwtable", i32 1}
!4 = !{!"clang version 13.0.0"}
!5 = !{!6, !6, i64 0}
!6 = !{!"int", !7, i64 0}
!7 = !{!"omnipotent char", !8, i64 0}
!8 = !{!"Simple C++ TBAA"}
!9 = !{!10, !10, i64 0}
!10 = !{!"vtable pointer", !8, i64 0}
!11 = !{!12, !13, i64 240}
!12 = !{!"_ZTSSt9basic_iosIcSt11char_traitsIcEE", !13, i64 216, !7, i64 224, !14, i64 225, !13, i64 232, !13, i64 240, !13, i64 248, !13, i64 256}
!13 = !{!"any pointer", !7, i64 0}
!14 = !{!"bool", !7, i64 0}
!15 = !{!16, !7, i64 56}
!16 = !{!"_ZTSSt5ctypeIcE", !13, i64 16, !14, i64 24, !13, i64 32, !13, i64 40, !13, i64 48, !7, i64 56, !7, i64 57, !7, i64 313, !7, i64 569}
!17 = !{!7, !7, i64 0}
!18 = distinct !{!18, !19}
!19 = !{!"llvm.loop.mustprogress"}
!20 = distinct !{!20, !19, !21}
!21 = !{!"llvm.loop.peeled.count", i32 3}
